; Function Attrs: uwtable
define void @_ZThn8_N8proxygen26PassThroughHTTPCodecFilter7onErrorEmRKNS_13HTTPExceptionEb(ptr nocapture noundef readonly %this, i64 noundef %stream, ptr noundef nonnull align 8 dereferenceable(96) %error, i1 noundef zeroext %newStream) unnamed_addr #4 align 2 {
entry:
  %callback_.i = getelementptr inbounds i8, ptr %this, i64 24
  %0 = load ptr, ptr %callback_.i, align 8
  %vtable.i = load ptr, ptr %0, align 8
  %vfn.i = getelementptr inbounds i8, ptr %vtable.i, i64 72
  %1 = load ptr, ptr %vfn.i, align 8
  tail call void %1(ptr noundef nonnull align 8 dereferenceable(8) %0, i64 noundef %stream, ptr noundef nonnull align 8 dereferenceable(96) %error, i1 noundef zeroext %newStream)
  ret void
}